; Function Attrs: nounwind sspstrong uwtable
define internal fastcc void @esp_fifo_push(ptr noundef %fifo, i8 noundef zeroext %val) unnamed_addr #0 {
entry:
  %_now.i.i = alloca %struct.timeval, align 8
  %call = tail call i32 @fifo8_num_used(ptr noundef %fifo) #10
  %capacity = getelementptr inbounds nuw i8, ptr %fifo, i64 8
  %0 = load i32, ptr %capacity, align 8
  %cmp = icmp eq i32 %call, %0
  br i1 %cmp, label %if.then, label %if.end

if.then:                                          ; preds = %entry
  call void @llvm.lifetime.start.p0(i64 16, ptr nonnull %_now.i.i)
  %1 = load i32, ptr @trace_events_enabled_count, align 4
  %tobool.i.i = icmp ne i32 %1, 0
  %2 = load i16, ptr @_TRACE_ESP_ERROR_FIFO_OVERRUN_DSTATE, align 2
  %tobool4.i.i = icmp ne i16 %2, 0
  %or.cond.i.i = select i1 %tobool.i.i, i1 %tobool4.i.i, i1 false
  br i1 %or.cond.i.i, label %land.lhs.true5.i.i, label %trace_esp_error_fifo_overrun.exit

land.lhs.true5.i.i:                               ; preds = %if.then
  %3 = load i32, ptr @qemu_loglevel, align 4
  %and.i.i.i = and i32 %3, 32768
  %cmp.i.not.i.i = icmp eq i32 %and.i.i.i, 0
  br i1 %cmp.i.not.i.i, label %trace_esp_error_fifo_overrun.exit, label %if.then.i.i

if.then.i.i:                                      ; preds = %land.lhs.true5.i.i
  %4 = load i8, ptr @message_with_timestamp, align 1
  %tobool7.i.i = trunc i8 %4 to i1
  br i1 %tobool7.i.i, label %if.then8.i.i, label %if.else.i.i

if.then8.i.i:                                     ; preds = %if.then.i.i
  %call9.i.i = call i32 @gettimeofday(ptr noundef nonnull %_now.i.i, ptr noundef null) #10
  %call10.i.i = tail call i32 @qemu_get_thread_id() #10
  %5 = load i64, ptr %_now.i.i, align 8
  %tv_usec.i.i = getelementptr inbounds nuw i8, ptr %_now.i.i, i64 8
  %6 = load i64, ptr %tv_usec.i.i, align 8
  tail call void (ptr, ...) @qemu_log(ptr noundef nonnull @.str.58, i32 noundef %call10.i.i, i64 noundef %5, i64 noundef %6) #10
  br label %trace_esp_error_fifo_overrun.exit

if.else.i.i:                                      ; preds = %if.then.i.i
  tail call void (ptr, ...) @qemu_log(ptr noundef nonnull @.str.59) #10
  br label %trace_esp_error_fifo_overrun.exit

trace_esp_error_fifo_overrun.exit:                ; preds = %if.then, %land.lhs.true5.i.i, %if.then8.i.i, %if.else.i.i
  call void @llvm.lifetime.end.p0(i64 16, ptr nonnull %_now.i.i)
  br label %return

if.end:                                           ; preds = %entry
  tail call void @fifo8_push(ptr noundef nonnull %fifo, i8 noundef zeroext %val) #10
  br label %return

return:                                           ; preds = %if.end, %trace_esp_error_fifo_overrun.exit
  ret void
}